target datalayout = "e-m:e-p270:32:32-p271:32:32-p272:64:64-i64:64-i128:128-f80:128-n8:16:32:64-S128"
target triple = "x86_64-pc-linux-gnu"

%"class.gmx::ArrayRef" = type { %"struct.gmx::ArrayRefIter", %"struct.gmx::ArrayRefIter" }
%"struct.gmx::ArrayRefIter" = type { ptr }
%union.t_iparams = type { %struct.anon.21 }
%struct.anon.21 = type { [3 x float], [3 x float], [3 x float], [3 x float] }
%struct.anon.0 = type { float, float, float, float }

; Function Attrs: mustprogress nounwind uwtable
define void @_Z16make_dp_periodicPf(ptr noundef %0) #3 {
  %2 = alloca ptr, align 8
  store ptr %0, ptr %2, align 8
  %3 = load ptr, ptr %2, align 8
  %4 = load float, ptr %3, align 4
  %5 = fpext float %4 to double
  %6 = fcmp oge double %5, 0x400921FB54442D18
  br i1 %6, label %7, label %13

7:                                                ; preds = %1
  %8 = load ptr, ptr %2, align 8
  %9 = load float, ptr %8, align 4
  %10 = fpext float %9 to double
  %11 = fsub double %10, 0x401921FB54442D18
  %12 = fptrunc double %11 to float
  store float %12, ptr %8, align 4
  br label %25

13:                                               ; preds = %1
  %14 = load ptr, ptr %2, align 8
  %15 = load float, ptr %14, align 4
  %16 = fpext float %15 to double
  %17 = fcmp olt double %16, 0xC00921FB54442D18
  br i1 %17, label %18, label %24

18:                                               ; preds = %13
  %19 = load ptr, ptr %2, align 8
  %20 = load float, ptr %19, align 4
  %21 = fpext float %20 to double
  %22 = fadd double %21, 0x401921FB54442D18
  %23 = fptrunc double %22 to float
  store float %23, ptr %19, align 4
  br label %24

24:                                               ; preds = %18, %13
  br label %25

25:                                               ; preds = %24, %7
  ret void
}

; Function Attrs: mustprogress uwtable
define internal noundef float @_ZN12_GLOBAL__N_15idihsIL18BondedKernelFlavor3EEEfiPKiPK9t_iparamsPA3_KfPA4_fPA3_fPK5t_pbcfPfN3gmx8ArrayRefIS7_EEP8t_fcdataP12t_disresdataP12t_oriresdataPi(i32 noundef %0, ptr noundef %1, ptr noundef %2, ptr noundef %3, ptr noundef %4, ptr noundef %5, ptr noundef %6, float noundef %7, ptr noundef %8, ptr noundef byval(%"class.gmx::ArrayRef") align 8 %9, ptr noundef %10, ptr noundef %11, ptr noundef %12, ptr noundef %13) #2 {
  %15 = alloca i32, align 4
  %16 = alloca ptr, align 8
  %17 = alloca ptr, align 8
  %18 = alloca ptr, align 8
  %19 = alloca ptr, align 8
  %20 = alloca ptr, align 8
  %21 = alloca ptr, align 8
  %22 = alloca float, align 4
  %23 = alloca ptr, align 8
  %24 = alloca ptr, align 8
  %25 = alloca ptr, align 8
  %26 = alloca ptr, align 8
  %27 = alloca ptr, align 8
  %28 = alloca i32, align 4
  %29 = alloca i32, align 4
  %30 = alloca i32, align 4
  %31 = alloca i32, align 4
  %32 = alloca i32, align 4
  %33 = alloca i32, align 4
  %34 = alloca i32, align 4
  %35 = alloca i32, align 4
  %36 = alloca i32, align 4
  %37 = alloca float, align 4
  %38 = alloca float, align 4
  %39 = alloca float, align 4
  %40 = alloca float, align 4
  %41 = alloca float, align 4
  %42 = alloca [3 x float], align 4
  %43 = alloca [3 x float], align 4
  %44 = alloca [3 x float], align 4
  %45 = alloca [3 x float], align 4
  %46 = alloca [3 x float], align 4
  %47 = alloca float, align 4
  %48 = alloca float, align 4
  %49 = alloca float, align 4
  %50 = alloca float, align 4
  %51 = alloca float, align 4
  %52 = alloca float, align 4
  %53 = alloca float, align 4
  %54 = alloca float, align 4
  %55 = alloca float, align 4
  store i32 %0, ptr %15, align 4
  store ptr %1, ptr %16, align 8
  store ptr %2, ptr %17, align 8
  store ptr %3, ptr %18, align 8
  store ptr %4, ptr %19, align 8
  store ptr %5, ptr %20, align 8
  store ptr %6, ptr %21, align 8
  store float %7, ptr %22, align 4
  store ptr %8, ptr %23, align 8
  store ptr %10, ptr %24, align 8
  store ptr %11, ptr %25, align 8
  store ptr %12, ptr %26, align 8
  store ptr %13, ptr %27, align 8
  %56 = load float, ptr %22, align 4
  %57 = fpext float %56 to double
  %58 = fsub double 1.000000e+00, %57
  %59 = fptrunc double %58 to float
  store float %59, ptr %47, align 4
  store float 0.000000e+00, ptr %55, align 4
  store float 0.000000e+00, ptr %41, align 4
  store i32 0, ptr %28, align 4
  br label %60

60:                                               ; preds = %64, %14
  %61 = load i32, ptr %28, align 4
  %62 = load i32, ptr %15, align 4
  %63 = icmp slt i32 %61, %62
  br i1 %63, label %64, label %223

64:                                               ; preds = %60
  %65 = load ptr, ptr %16, align 8
  %66 = load i32, ptr %28, align 4
  %67 = add nsw i32 %66, 1
  store i32 %67, ptr %28, align 4
  %68 = sext i32 %66 to i64
  %69 = getelementptr inbounds i32, ptr %65, i64 %68
  %70 = load i32, ptr %69, align 4
  store i32 %70, ptr %29, align 4
  %71 = load ptr, ptr %16, align 8
  %72 = load i32, ptr %28, align 4
  %73 = add nsw i32 %72, 1
  store i32 %73, ptr %28, align 4
  %74 = sext i32 %72 to i64
  %75 = getelementptr inbounds i32, ptr %71, i64 %74
  %76 = load i32, ptr %75, align 4
  store i32 %76, ptr %30, align 4
  %77 = load ptr, ptr %16, align 8
  %78 = load i32, ptr %28, align 4
  %79 = add nsw i32 %78, 1
  store i32 %79, ptr %28, align 4
  %80 = sext i32 %78 to i64
  %81 = getelementptr inbounds i32, ptr %77, i64 %80
  %82 = load i32, ptr %81, align 4
  store i32 %82, ptr %31, align 4
  %83 = load ptr, ptr %16, align 8
  %84 = load i32, ptr %28, align 4
  %85 = add nsw i32 %84, 1
  store i32 %85, ptr %28, align 4
  %86 = sext i32 %84 to i64
  %87 = getelementptr inbounds i32, ptr %83, i64 %86
  %88 = load i32, ptr %87, align 4
  store i32 %88, ptr %32, align 4
  %89 = load ptr, ptr %16, align 8
  %90 = load i32, ptr %28, align 4
  %91 = add nsw i32 %90, 1
  store i32 %91, ptr %28, align 4
  %92 = sext i32 %90 to i64
  %93 = getelementptr inbounds i32, ptr %89, i64 %92
  %94 = load i32, ptr %93, align 4
  store i32 %94, ptr %33, align 4
  %95 = load ptr, ptr %18, align 8
  %96 = load i32, ptr %30, align 4
  %97 = sext i32 %96 to i64
  %98 = getelementptr inbounds [3 x float], ptr %95, i64 %97
  %99 = getelementptr inbounds [3 x float], ptr %98, i64 0, i64 0
  %100 = load ptr, ptr %18, align 8
  %101 = load i32, ptr %31, align 4
  %102 = sext i32 %101 to i64
  %103 = getelementptr inbounds [3 x float], ptr %100, i64 %102
  %104 = getelementptr inbounds [3 x float], ptr %103, i64 0, i64 0
  %105 = load ptr, ptr %18, align 8
  %106 = load i32, ptr %32, align 4
  %107 = sext i32 %106 to i64
  %108 = getelementptr inbounds [3 x float], ptr %105, i64 %107
  %109 = getelementptr inbounds [3 x float], ptr %108, i64 0, i64 0
  %110 = load ptr, ptr %18, align 8
  %111 = load i32, ptr %33, align 4
  %112 = sext i32 %111 to i64
  %113 = getelementptr inbounds [3 x float], ptr %110, i64 %112
  %114 = getelementptr inbounds [3 x float], ptr %113, i64 0, i64 0
  %115 = load ptr, ptr %21, align 8
  %116 = getelementptr inbounds [3 x float], ptr %42, i64 0, i64 0
  %117 = getelementptr inbounds [3 x float], ptr %43, i64 0, i64 0
  %118 = getelementptr inbounds [3 x float], ptr %44, i64 0, i64 0
  %119 = getelementptr inbounds [3 x float], ptr %45, i64 0, i64 0
  %120 = getelementptr inbounds [3 x float], ptr %46, i64 0, i64 0
  %121 = call noundef float @_Z9dih_anglePKfS0_S0_S0_PK5t_pbcPfS4_S4_S4_S4_PiS5_S5_(ptr noundef %99, ptr noundef %104, ptr noundef %109, ptr noundef %114, ptr noundef %115, ptr noundef %116, ptr noundef %117, ptr noundef %118, ptr noundef %119, ptr noundef %120, ptr noundef %34, ptr noundef %35, ptr noundef %36)
  store float %121, ptr %37, align 4
  %122 = load ptr, ptr %17, align 8
  %123 = load i32, ptr %29, align 4
  %124 = sext i32 %123 to i64
  %125 = getelementptr inbounds %union.t_iparams, ptr %122, i64 %124
  %126 = getelementptr inbounds %struct.anon.0, ptr %125, i32 0, i32 1
  %127 = load float, ptr %126, align 4
  store float %127, ptr %51, align 4
  %128 = load ptr, ptr %17, align 8
  %129 = load i32, ptr %29, align 4
  %130 = sext i32 %129 to i64
  %131 = getelementptr inbounds %union.t_iparams, ptr %128, i64 %130
  %132 = getelementptr inbounds %struct.anon.0, ptr %131, i32 0, i32 3
  %133 = load float, ptr %132, align 4
  store float %133, ptr %52, align 4
  %134 = load ptr, ptr %17, align 8
  %135 = load i32, ptr %29, align 4
  %136 = sext i32 %135 to i64
  %137 = getelementptr inbounds %union.t_iparams, ptr %134, i64 %136
  %138 = getelementptr inbounds %struct.anon.0, ptr %137, i32 0, i32 0
  %139 = load float, ptr %138, align 4
  store float %139, ptr %53, align 4
  %140 = load ptr, ptr %17, align 8
  %141 = load i32, ptr %29, align 4
  %142 = sext i32 %141 to i64
  %143 = getelementptr inbounds %union.t_iparams, ptr %140, i64 %142
  %144 = getelementptr inbounds %struct.anon.0, ptr %143, i32 0, i32 2
  %145 = load float, ptr %144, align 4
  store float %145, ptr %54, align 4
  %146 = load float, ptr %47, align 4
  %147 = load float, ptr %51, align 4
  %148 = load float, ptr %22, align 4
  %149 = load float, ptr %52, align 4
  %150 = fmul float %148, %149
  %151 = call float @llvm.fmuladd.f32(float %146, float %147, float %150)
  store float %151, ptr %48, align 4
  %152 = load float, ptr %47, align 4
  %153 = load float, ptr %53, align 4
  %154 = load float, ptr %22, align 4
  %155 = load float, ptr %54, align 4
  %156 = fmul float %154, %155
  %157 = call float @llvm.fmuladd.f32(float %152, float %153, float %156)
  %158 = fpext float %157 to double
  %159 = fmul double %158, 0x3F91DF46A2529D39
  %160 = fptrunc double %159 to float
  store float %160, ptr %38, align 4
  %161 = load float, ptr %54, align 4
  %162 = load float, ptr %53, align 4
  %163 = fsub float %161, %162
  %164 = fpext float %163 to double
  %165 = fmul double %164, 0x3F91DF46A2529D39
  %166 = fptrunc double %165 to float
  store float %166, ptr %39, align 4
  %167 = load float, ptr %37, align 4
  %168 = load float, ptr %38, align 4
  %169 = fsub float %167, %168
  store float %169, ptr %49, align 4
  call void @_Z16make_dp_periodicPf(ptr noundef %49)
  %170 = load float, ptr %49, align 4
  %171 = load float, ptr %49, align 4
  %172 = fmul float %170, %171
  store float %172, ptr %50, align 4
  %173 = load float, ptr %48, align 4
  %174 = fpext float %173 to double
  %175 = fmul double 5.000000e-01, %174
  %176 = load float, ptr %50, align 4
  %177 = fpext float %176 to double
  %178 = load float, ptr %41, align 4
  %179 = fpext float %178 to double
  %180 = call double @llvm.fmuladd.f64(double %175, double %177, double %179)
  %181 = fptrunc double %180 to float
  store float %181, ptr %41, align 4
  %182 = load float, ptr %48, align 4
  %183 = fneg float %182
  %184 = load float, ptr %49, align 4
  %185 = fmul float %183, %184
  store float %185, ptr %40, align 4
  %186 = load float, ptr %52, align 4
  %187 = load float, ptr %51, align 4
  %188 = fsub float %186, %187
  %189 = fpext float %188 to double
  %190 = fmul double 5.000000e-01, %189
  %191 = load float, ptr %50, align 4
  %192 = fpext float %191 to double
  %193 = load float, ptr %48, align 4
  %194 = load float, ptr %39, align 4
  %195 = fmul float %193, %194
  %196 = load float, ptr %49, align 4
  %197 = fmul float %195, %196
  %198 = fpext float %197 to double
  %199 = fneg double %198
  %200 = call double @llvm.fmuladd.f64(double %190, double %192, double %199)
  %201 = load float, ptr %55, align 4
  %202 = fpext float %201 to double
  %203 = fadd double %202, %200
  %204 = fptrunc double %203 to float
  store float %204, ptr %55, align 4
  %205 = load i32, ptr %30, align 4
  %206 = load i32, ptr %31, align 4
  %207 = load i32, ptr %32, align 4
  %208 = load i32, ptr %33, align 4
  %209 = load float, ptr %40, align 4
  %210 = fneg float %209
  %211 = getelementptr inbounds [3 x float], ptr %42, i64 0, i64 0
  %212 = getelementptr inbounds [3 x float], ptr %43, i64 0, i64 0
  %213 = getelementptr inbounds [3 x float], ptr %44, i64 0, i64 0
  %214 = getelementptr inbounds [3 x float], ptr %45, i64 0, i64 0
  %215 = getelementptr inbounds [3 x float], ptr %46, i64 0, i64 0
  %216 = load ptr, ptr %19, align 8
  %217 = load ptr, ptr %20, align 8
  %218 = load ptr, ptr %21, align 8
  %219 = load ptr, ptr %18, align 8
  %220 = load i32, ptr %34, align 4
  %221 = load i32, ptr %35, align 4
  %222 = load i32, ptr %36, align 4
  call void @_Z10do_dih_fupIL18BondedKernelFlavor3EEviiiifPfS1_S1_S1_S1_PA4_fPA3_fPK5t_pbcPA3_Kfiii(i32 noundef %205, i32 noundef %206, i32 noundef %207, i32 noundef %208, float noundef %210, ptr noundef %211, ptr noundef %212, ptr noundef %213, ptr noundef %214, ptr noundef %215, ptr noundef %216, ptr noundef %217, ptr noundef %218, ptr noundef %219, i32 noundef %220, i32 noundef %221, i32 noundef %222)
  br label %60, !llvm.loop !194

223:                                              ; preds = %60
  %224 = load float, ptr %55, align 4
  %225 = load ptr, ptr %23, align 8
  %226 = load float, ptr %225, align 4
  %227 = fadd float %226, %224
  store float %227, ptr %225, align 4
  %228 = load float, ptr %41, align 4
  ret float %228
}