; Function Attrs: mustprogress uwtable
define internal noundef float @_ZN12_GLOBAL__N_15idihsIL18BondedKernelFlavor3EEEfiPKiPK9t_iparamsPA3_KfPA4_fPA3_fPK5t_pbcfPfN3gmx8ArrayRefIS7_EEP8t_fcdataP12t_disresdataP12t_oriresdataPi(i32 noundef %0, ptr nocapture noundef readonly %1, ptr nocapture noundef readonly %2, ptr noundef %3, ptr noundef %4, ptr noundef %5, ptr noundef %6, float noundef %7, ptr nocapture noundef %8, ptr nocapture noundef readnone byval(%"class.gmx::ArrayRef") align 8 %9, ptr nocapture readnone %10, ptr nocapture readnone %11, ptr nocapture readnone %12, ptr nocapture readnone %13) #4 {
  %15 = alloca i32, align 4
  %16 = alloca i32, align 4
  %17 = alloca i32, align 4
  %18 = alloca [3 x float], align 4
  %19 = alloca [3 x float], align 4
  %20 = alloca [3 x float], align 4
  %21 = alloca [3 x float], align 4
  %22 = alloca [3 x float], align 4
  %23 = fsub float 1.000000e+00, %7
  %invariant.gep = getelementptr i8, ptr %1, i64 16
  %24 = icmp sgt i32 %0, 0
  br i1 %24, label %.lr.ph, label %._crit_edge

.lr.ph:                                           ; preds = %14, %_Z16make_dp_periodicPf.exit
  %indvars.iv = phi i64 [ %indvars.iv.next, %_Z16make_dp_periodicPf.exit ], [ 0, %14 ]
  %.069 = phi float [ %87, %_Z16make_dp_periodicPf.exit ], [ 0.000000e+00, %14 ]
  %.06467 = phi float [ %76, %_Z16make_dp_periodicPf.exit ], [ 0.000000e+00, %14 ]
  %25 = getelementptr inbounds i32, ptr %1, i64 %indvars.iv
  %26 = load i32, ptr %25, align 4
  %27 = getelementptr i8, ptr %25, i64 4
  %28 = load i32, ptr %27, align 4
  %29 = getelementptr i8, ptr %25, i64 8
  %30 = load i32, ptr %29, align 4
  %31 = getelementptr i8, ptr %25, i64 12
  %32 = load i32, ptr %31, align 4
  %indvars.iv.next = add nuw nsw i64 %indvars.iv, 5
  %gep = getelementptr i32, ptr %invariant.gep, i64 %indvars.iv
  %33 = load i32, ptr %gep, align 4
  %34 = sext i32 %28 to i64
  %35 = getelementptr inbounds [3 x float], ptr %3, i64 %34
  %36 = sext i32 %30 to i64
  %37 = getelementptr inbounds [3 x float], ptr %3, i64 %36
  %38 = sext i32 %32 to i64
  %39 = getelementptr inbounds [3 x float], ptr %3, i64 %38
  %40 = sext i32 %33 to i64
  %41 = getelementptr inbounds [3 x float], ptr %3, i64 %40
  %42 = call noundef float @_Z9dih_anglePKfS0_S0_S0_PK5t_pbcPfS4_S4_S4_S4_PiS5_S5_(ptr noundef %35, ptr noundef %37, ptr noundef %39, ptr noundef %41, ptr noundef %6, ptr noundef nonnull %18, ptr noundef nonnull %19, ptr noundef nonnull %20, ptr noundef nonnull %21, ptr noundef nonnull %22, ptr noundef nonnull %15, ptr noundef nonnull %16, ptr noundef nonnull %17)
  %43 = sext i32 %26 to i64
  %44 = getelementptr inbounds %union.t_iparams, ptr %2, i64 %43
  %45 = getelementptr inbounds i8, ptr %44, i64 4
  %46 = load float, ptr %45, align 4
  %47 = getelementptr inbounds i8, ptr %44, i64 12
  %48 = load float, ptr %47, align 4
  %49 = load float, ptr %44, align 4
  %50 = getelementptr inbounds i8, ptr %44, i64 8
  %51 = load float, ptr %50, align 4
  %52 = fmul float %48, %7
  %53 = call float @llvm.fmuladd.f32(float %23, float %46, float %52)
  %54 = fmul float %51, %7
  %55 = call float @llvm.fmuladd.f32(float %23, float %49, float %54)
  %56 = fpext float %55 to double
  %57 = fmul double %56, 0x3F91DF46A2529D39
  %58 = fptrunc double %57 to float
  %59 = fsub float %51, %49
  %60 = fpext float %59 to double
  %61 = fmul double %60, 0x3F91DF46A2529D39
  %62 = fptrunc double %61 to float
  %63 = fsub float %42, %58
  %64 = fpext float %63 to double
  %65 = fcmp ult double %64, 0x400921FB54442D18
  br i1 %65, label %66, label %.sink.split.i

66:                                               ; preds = %.lr.ph
  %67 = fcmp olt double %64, 0xC00921FB54442D18
  br i1 %67, label %.sink.split.i, label %_Z16make_dp_periodicPf.exit

.sink.split.i:                                    ; preds = %66, %.lr.ph
  %.sink.i = phi double [ 0xC01921FB54442D18, %.lr.ph ], [ 0x401921FB54442D18, %66 ]
  %68 = fadd double %.sink.i, %64
  %69 = fptrunc double %68 to float
  br label %_Z16make_dp_periodicPf.exit

_Z16make_dp_periodicPf.exit:                      ; preds = %66, %.sink.split.i
  %.066 = phi float [ %69, %.sink.split.i ], [ %63, %66 ]
  %70 = fmul float %.066, %.066
  %71 = fpext float %53 to double
  %72 = fmul double %71, 5.000000e-01
  %73 = fpext float %70 to double
  %74 = fpext float %.06467 to double
  %75 = call double @llvm.fmuladd.f64(double %72, double %73, double %74)
  %76 = fptrunc double %75 to float
  %77 = fsub float %48, %46
  %78 = fpext float %77 to double
  %79 = fmul double %78, 5.000000e-01
  %80 = fmul float %53, %62
  %81 = fmul float %80, %.066
  %82 = fpext float %81 to double
  %83 = fneg double %82
  %84 = call double @llvm.fmuladd.f64(double %79, double %73, double %83)
  %85 = fpext float %.069 to double
  %86 = fadd double %84, %85
  %87 = fptrunc double %86 to float
  %88 = fmul float %53, %.066
  %89 = load i32, ptr %15, align 4
  %90 = load i32, ptr %16, align 4
  %91 = load i32, ptr %17, align 4
  call void @_Z10do_dih_fupIL18BondedKernelFlavor3EEviiiifPfS1_S1_S1_S1_PA4_fPA3_fPK5t_pbcPA3_Kfiii(i32 noundef %28, i32 noundef %30, i32 noundef %32, i32 noundef %33, float noundef %88, ptr noundef nonnull %18, ptr noundef nonnull %19, ptr noundef nonnull %20, ptr noundef nonnull %21, ptr noundef nonnull %22, ptr noundef %4, ptr noundef %5, ptr noundef %6, ptr noundef %3, i32 noundef %89, i32 noundef %90, i32 noundef %91)
  %92 = trunc nuw i64 %indvars.iv.next to i32
  %93 = icmp slt i32 %92, %0
  br i1 %93, label %.lr.ph, label %._crit_edge, !llvm.loop !198

._crit_edge:                                      ; preds = %_Z16make_dp_periodicPf.exit, %14
  %.064.lcssa = phi float [ 0.000000e+00, %14 ], [ %76, %_Z16make_dp_periodicPf.exit ]
  %.0.lcssa = phi float [ 0.000000e+00, %14 ], [ %87, %_Z16make_dp_periodicPf.exit ]
  %94 = load float, ptr %8, align 4
  %95 = fadd float %.0.lcssa, %94
  store float %95, ptr %8, align 4
  ret float %.064.lcssa
}